; ModuleID = '57/1417.c'
source_filename = "57/1417.c"
target datalayout = "e-m:e-p270:32:32-p271:32:32-p272:64:64-i64:64-f80:128-n8:16:32:64-S128"
target triple = "x86_64-pc-linux-gnu"

@.str = private unnamed_addr constant [3 x i8] c"%d\00", align 1
@.str.1 = private unnamed_addr constant [3 x i8] c"%s\00", align 1
@.str.2 = private unnamed_addr constant [3 x i8] c"%c\00", align 1
@.str.3 = private unnamed_addr constant [2 x i8] c"\0A\00", align 1

; Function Attrs: noinline nounwind uwtable
define dso_local void @main() #0 {
  %1 = alloca i32, align 4
  %2 = alloca i32, align 4
  %3 = alloca [50 x [32 x i8]], align 16
  %4 = call i32 (i8*, ...) @__isoc99_scanf(i8* getelementptr inbounds ([3 x i8], [3 x i8]* @.str, i64 0, i64 0), i32* %2)
  store i32 0, i32* %1, align 4
  br label %5

5:                                                ; preds = %15, %0
  %6 = load i32, i32* %1, align 4
  %7 = load i32, i32* %2, align 4
  %8 = icmp slt i32 %6, %7
  br i1 %8, label %9, label %18

9:                                                ; preds = %5
  %10 = load i32, i32* %1, align 4
  %11 = sext i32 %10 to i64
  %12 = getelementptr inbounds [50 x [32 x i8]], [50 x [32 x i8]]* %3, i64 0, i64 %11
  %13 = getelementptr inbounds [32 x i8], [32 x i8]* %12, i64 0, i64 0
  %14 = call i32 (i8*, ...) @__isoc99_scanf(i8* getelementptr inbounds ([3 x i8], [3 x i8]* @.str.1, i64 0, i64 0), i8* %13)
  br label %15

15:                                               ; preds = %9
  %16 = load i32, i32* %1, align 4
  %17 = add nsw i32 %16, 1
  store i32 %17, i32* %1, align 4
  br label %5

18:                                               ; preds = %5
  %19 = getelementptr inbounds [50 x [32 x i8]], [50 x [32 x i8]]* %3, i64 0, i64 0
  %20 = load i32, i32* %2, align 4
  call void @abc([32 x i8]* %19, i32 %20)
  ret void
}

declare dso_local i32 @__isoc99_scanf(i8*, ...) #1

; Function Attrs: noinline nounwind uwtable
define dso_local void @abc([32 x i8]* %0, i32 %1) #0 {
  %3 = alloca [32 x i8]*, align 8
  %4 = alloca i32, align 4
  %5 = alloca i32, align 4
  %6 = alloca i32, align 4
  %7 = alloca i32, align 4
  %8 = alloca i32, align 4
  %9 = alloca i32, align 4
  store [32 x i8]* %0, [32 x i8]** %3, align 8
  store i32 %1, i32* %4, align 4
  store i32 0, i32* %5, align 4
  br label %10

10:                                               ; preds = %172, %2
  %11 = load i32, i32* %5, align 4
  %12 = load i32, i32* %4, align 4
  %13 = icmp slt i32 %11, %12
  br i1 %13, label %14, label %175

14:                                               ; preds = %10
  %15 = load [32 x i8]*, [32 x i8]** %3, align 8
  %16 = load i32, i32* %5, align 4
  %17 = sext i32 %16 to i64
  %18 = getelementptr inbounds [32 x i8], [32 x i8]* %15, i64 %17
  %19 = getelementptr inbounds [32 x i8], [32 x i8]* %18, i64 0, i64 0
  %20 = call i64 @strlen(i8* %19) #3
  %21 = trunc i64 %20 to i32
  store i32 %21, i32* %6, align 4
  %22 = load [32 x i8]*, [32 x i8]** %3, align 8
  %23 = load i32, i32* %5, align 4
  %24 = sext i32 %23 to i64
  %25 = getelementptr inbounds [32 x i8], [32 x i8]* %22, i64 %24
  %26 = load i32, i32* %6, align 4
  %27 = sub nsw i32 %26, 1
  %28 = sext i32 %27 to i64
  %29 = getelementptr inbounds [32 x i8], [32 x i8]* %25, i64 0, i64 %28
  %30 = load i8, i8* %29, align 1
  %31 = sext i8 %30 to i32
  %32 = icmp eq i32 %31, 114
  br i1 %32, label %33, label %66

33:                                               ; preds = %14
  %34 = load [32 x i8]*, [32 x i8]** %3, align 8
  %35 = load i32, i32* %5, align 4
  %36 = sext i32 %35 to i64
  %37 = getelementptr inbounds [32 x i8], [32 x i8]* %34, i64 %36
  %38 = load i32, i32* %6, align 4
  %39 = sub nsw i32 %38, 2
  %40 = sext i32 %39 to i64
  %41 = getelementptr inbounds [32 x i8], [32 x i8]* %37, i64 0, i64 %40
  %42 = load i8, i8* %41, align 1
  %43 = sext i8 %42 to i32
  %44 = icmp eq i32 %43, 101
  br i1 %44, label %45, label %66

45:                                               ; preds = %33
  store i32 0, i32* %7, align 4
  br label %46

46:                                               ; preds = %62, %45
  %47 = load i32, i32* %7, align 4
  %48 = load i32, i32* %6, align 4
  %49 = sub nsw i32 %48, 2
  %50 = icmp slt i32 %47, %49
  br i1 %50, label %51, label %65

51:                                               ; preds = %46
  %52 = load [32 x i8]*, [32 x i8]** %3, align 8
  %53 = load i32, i32* %5, align 4
  %54 = sext i32 %53 to i64
  %55 = getelementptr inbounds [32 x i8], [32 x i8]* %52, i64 %54
  %56 = load i32, i32* %7, align 4
  %57 = sext i32 %56 to i64
  %58 = getelementptr inbounds [32 x i8], [32 x i8]* %55, i64 0, i64 %57
  %59 = load i8, i8* %58, align 1
  %60 = sext i8 %59 to i32
  %61 = call i32 (i8*, ...) @printf(i8* getelementptr inbounds ([3 x i8], [3 x i8]* @.str.2, i64 0, i64 0), i32 %60)
  br label %62

62:                                               ; preds = %51
  %63 = load i32, i32* %7, align 4
  %64 = add nsw i32 %63, 1
  store i32 %64, i32* %7, align 4
  br label %46

65:                                               ; preds = %46
  br label %170

66:                                               ; preds = %33, %14
  %67 = load [32 x i8]*, [32 x i8]** %3, align 8
  %68 = load i32, i32* %5, align 4
  %69 = sext i32 %68 to i64
  %70 = getelementptr inbounds [32 x i8], [32 x i8]* %67, i64 %69
  %71 = load i32, i32* %6, align 4
  %72 = sub nsw i32 %71, 1
  %73 = sext i32 %72 to i64
  %74 = getelementptr inbounds [32 x i8], [32 x i8]* %70, i64 0, i64 %73
  %75 = load i8, i8* %74, align 1
  %76 = sext i8 %75 to i32
  %77 = icmp eq i32 %76, 121
  br i1 %77, label %78, label %111

78:                                               ; preds = %66
  %79 = load [32 x i8]*, [32 x i8]** %3, align 8
  %80 = load i32, i32* %5, align 4
  %81 = sext i32 %80 to i64
  %82 = getelementptr inbounds [32 x i8], [32 x i8]* %79, i64 %81
  %83 = load i32, i32* %6, align 4
  %84 = sub nsw i32 %83, 2
  %85 = sext i32 %84 to i64
  %86 = getelementptr inbounds [32 x i8], [32 x i8]* %82, i64 0, i64 %85
  %87 = load i8, i8* %86, align 1
  %88 = sext i8 %87 to i32
  %89 = icmp eq i32 %88, 108
  br i1 %89, label %90, label %111

90:                                               ; preds = %78
  store i32 0, i32* %9, align 4
  br label %91

91:                                               ; preds = %107, %90
  %92 = load i32, i32* %9, align 4
  %93 = load i32, i32* %6, align 4
  %94 = sub nsw i32 %93, 2
  %95 = icmp slt i32 %92, %94
  br i1 %95, label %96, label %110

96:                                               ; preds = %91
  %97 = load [32 x i8]*, [32 x i8]** %3, align 8
  %98 = load i32, i32* %5, align 4
  %99 = sext i32 %98 to i64
  %100 = getelementptr inbounds [32 x i8], [32 x i8]* %97, i64 %99
  %101 = load i32, i32* %9, align 4
  %102 = sext i32 %101 to i64
  %103 = getelementptr inbounds [32 x i8], [32 x i8]* %100, i64 0, i64 %102
  %104 = load i8, i8* %103, align 1
  %105 = sext i8 %104 to i32
  %106 = call i32 (i8*, ...) @printf(i8* getelementptr inbounds ([3 x i8], [3 x i8]* @.str.2, i64 0, i64 0), i32 %105)
  br label %107

107:                                              ; preds = %96
  %108 = load i32, i32* %9, align 4
  %109 = add nsw i32 %108, 1
  store i32 %109, i32* %9, align 4
  br label %91

110:                                              ; preds = %91
  br label %169

111:                                              ; preds = %78, %66
  %112 = load [32 x i8]*, [32 x i8]** %3, align 8
  %113 = load i32, i32* %5, align 4
  %114 = sext i32 %113 to i64
  %115 = getelementptr inbounds [32 x i8], [32 x i8]* %112, i64 %114
  %116 = load i32, i32* %6, align 4
  %117 = sub nsw i32 %116, 1
  %118 = sext i32 %117 to i64
  %119 = getelementptr inbounds [32 x i8], [32 x i8]* %115, i64 0, i64 %118
  %120 = load i8, i8* %119, align 1
  %121 = sext i8 %120 to i32
  %122 = icmp eq i32 %121, 103
  br i1 %122, label %123, label %168

123:                                              ; preds = %111
  %124 = load [32 x i8]*, [32 x i8]** %3, align 8
  %125 = load i32, i32* %5, align 4
  %126 = sext i32 %125 to i64
  %127 = getelementptr inbounds [32 x i8], [32 x i8]* %124, i64 %126
  %128 = load i32, i32* %6, align 4
  %129 = sub nsw i32 %128, 2
  %130 = sext i32 %129 to i64
  %131 = getelementptr inbounds [32 x i8], [32 x i8]* %127, i64 0, i64 %130
  %132 = load i8, i8* %131, align 1
  %133 = sext i8 %132 to i32
  %134 = icmp eq i32 %133, 110
  br i1 %134, label %135, label %168

135:                                              ; preds = %123
  %136 = load [32 x i8]*, [32 x i8]** %3, align 8
  %137 = load i32, i32* %5, align 4
  %138 = sext i32 %137 to i64
  %139 = getelementptr inbounds [32 x i8], [32 x i8]* %136, i64 %138
  %140 = load i32, i32* %6, align 4
  %141 = sub nsw i32 %140, 3
  %142 = sext i32 %141 to i64
  %143 = getelementptr inbounds [32 x i8], [32 x i8]* %139, i64 0, i64 %142
  %144 = load i8, i8* %143, align 1
  %145 = sext i8 %144 to i32
  %146 = icmp eq i32 %145, 105
  br i1 %146, label %147, label %168

147:                                              ; preds = %135
  store i32 0, i32* %8, align 4
  br label %148

148:                                              ; preds = %164, %147
  %149 = load i32, i32* %8, align 4
  %150 = load i32, i32* %6, align 4
  %151 = sub nsw i32 %150, 3
  %152 = icmp slt i32 %149, %151
  br i1 %152, label %153, label %167

153:                                              ; preds = %148
  %154 = load [32 x i8]*, [32 x i8]** %3, align 8
  %155 = load i32, i32* %5, align 4
  %156 = sext i32 %155 to i64
  %157 = getelementptr inbounds [32 x i8], [32 x i8]* %154, i64 %156
  %158 = load i32, i32* %8, align 4
  %159 = sext i32 %158 to i64
  %160 = getelementptr inbounds [32 x i8], [32 x i8]* %157, i64 0, i64 %159
  %161 = load i8, i8* %160, align 1
  %162 = sext i8 %161 to i32
  %163 = call i32 (i8*, ...) @printf(i8* getelementptr inbounds ([3 x i8], [3 x i8]* @.str.2, i64 0, i64 0), i32 %162)
  br label %164

164:                                              ; preds = %153
  %165 = load i32, i32* %8, align 4
  %166 = add nsw i32 %165, 1
  store i32 %166, i32* %8, align 4
  br label %148

167:                                              ; preds = %148
  br label %168

168:                                              ; preds = %167, %135, %123, %111
  br label %169

169:                                              ; preds = %168, %110
  br label %170

170:                                              ; preds = %169, %65
  %171 = call i32 (i8*, ...) @printf(i8* getelementptr inbounds ([2 x i8], [2 x i8]* @.str.3, i64 0, i64 0))
  br label %172

172:                                              ; preds = %170
  %173 = load i32, i32* %5, align 4
  %174 = add nsw i32 %173, 1
  store i32 %174, i32* %5, align 4
  br label %10

175:                                              ; preds = %10
  ret void
}

; Function Attrs: nounwind readonly
declare dso_local i64 @strlen(i8*) #2

declare dso_local i32 @printf(i8*, ...) #1


!llvm.module.flags = !{!0}
!llvm.ident = !{!1}

!0 = !{i32 1, !"wchar_size", i32 4}
!1 = !{!"clang version 10.0.0-4ubuntu1 "}
